target datalayout = "e-m:e-p270:32:32-p271:32:32-p272:64:64-i64:64-i128:128-f80:128-n8:16:32:64-S128"
target triple = "x86_64-pc-linux-gnu"

%"class.std::__cxx11::basic_string" = type { %"struct.std::__cxx11::basic_string<char>::_Alloc_hider", i64, %union.anon }
%"struct.std::__cxx11::basic_string<char>::_Alloc_hider" = type { ptr }
%union.anon = type { i64, [8 x i8] }
%"class.duckdb::optional_ptr.96" = type { ptr }
%"class.duckdb::optional_ptr.97" = type { ptr }
%"struct.duckdb::CatalogTransaction" = type { %"class.duckdb::optional_ptr.96", %"class.duckdb::optional_ptr.97", %"class.duckdb::optional_ptr.480", i64, i64 }
%"class.duckdb::optional_ptr.480" = type { ptr }
%"class.duckdb::optional_ptr.594" = type { ptr }
%"class.duckdb::CatalogSetSecretStorage" = type { %"class.duckdb::SecretStorage.base", %"class.duckdb::unique_ptr.714", ptr }
%"class.duckdb::SecretStorage.base" = type <{ ptr, %"class.std::__cxx11::basic_string", i64, i8 }>
%"class.duckdb::unique_ptr.714" = type { %"class.std::unique_ptr.715" }
%"class.std::unique_ptr.715" = type { %"struct.std::__uniq_ptr_data.716" }
%"struct.std::__uniq_ptr_data.716" = type { %"class.std::__uniq_ptr_impl.717" }
%"class.std::__uniq_ptr_impl.717" = type { %"class.std::tuple.718" }
%"class.std::tuple.718" = type { %"struct.std::_Tuple_impl.719" }
%"struct.std::_Tuple_impl.719" = type { %"struct.std::_Head_base.722" }
%"struct.std::_Head_base.722" = type { ptr }

; Function Attrs: mustprogress uwtable
define linkonce_odr noundef nonnull align 8 dereferenceable(40) ptr @_ZN6duckdb12optional_ptrINS_18CatalogTransactionELb1EEdeEv(ptr noundef nonnull align 8 dereferenceable(8) %0) #4 comdat align 2 {
  %2 = alloca ptr, align 8
  store ptr %0, ptr %2, align 8, !tbaa !340
  %3 = load ptr, ptr %2, align 8
  call void @_ZNK6duckdb12optional_ptrINS_18CatalogTransactionELb1EE10CheckValidEv(ptr noundef nonnull align 8 dereferenceable(8) %3)
  %4 = getelementptr inbounds nuw %"class.duckdb::optional_ptr.594", ptr %3, i32 0, i32 0
  %5 = load ptr, ptr %4, align 8, !tbaa !344
  ret ptr %5
}

; Function Attrs: mustprogress nounwind uwtable
define linkonce_odr noundef zeroext i1 @_ZNK6duckdb12optional_ptrINS_18CatalogTransactionELb1EEcvbEv(ptr noundef nonnull align 8 dereferenceable(8) %0) #6 comdat align 2 {
  %2 = alloca ptr, align 8
  store ptr %0, ptr %2, align 8, !tbaa !340
  %3 = load ptr, ptr %2, align 8
  %4 = getelementptr inbounds nuw %"class.duckdb::optional_ptr.594", ptr %3, i32 0, i32 0
  %5 = load ptr, ptr %4, align 8, !tbaa !344
  %6 = icmp ne ptr %5, null
  ret i1 %6
}

; Function Attrs: mustprogress uwtable
define void @_ZN6duckdb23CatalogSetSecretStorage23GetTransactionOrDefaultENS_12optional_ptrINS_18CatalogTransactionELb1EEE(ptr dead_on_unwind noalias writable sret(%"struct.duckdb::CatalogTransaction") align 8 %0, ptr noundef nonnull align 8 dereferenceable(72) %1, ptr %2) #4 align 2 {
  %4 = alloca %"class.duckdb::optional_ptr.594", align 8
  %5 = alloca ptr, align 8
  %6 = getelementptr inbounds nuw %"class.duckdb::optional_ptr.594", ptr %4, i32 0, i32 0
  store ptr %2, ptr %6, align 8
  store ptr %1, ptr %5, align 8, !tbaa !772
  %7 = load ptr, ptr %5, align 8
  %8 = call noundef zeroext i1 @_ZNK6duckdb12optional_ptrINS_18CatalogTransactionELb1EEcvbEv(ptr noundef nonnull align 8 dereferenceable(8) %4)
  br i1 %8, label %9, label %11

9:                                                ; preds = %3
  %10 = call noundef nonnull align 8 dereferenceable(40) ptr @_ZN6duckdb12optional_ptrINS_18CatalogTransactionELb1EEdeEv(ptr noundef nonnull align 8 dereferenceable(8) %4)
  call void @llvm.memcpy.p0.p0.i64(ptr align 8 %0, ptr align 8 %10, i64 40, i1 false), !tbaa.struct !126
  br label %14

11:                                               ; preds = %3
  %12 = getelementptr inbounds nuw %"class.duckdb::CatalogSetSecretStorage", ptr %7, i32 0, i32 2
  %13 = load ptr, ptr %12, align 8, !tbaa !775
  call void @_ZN6duckdb18CatalogTransaction20GetSystemTransactionERNS_16DatabaseInstanceE(ptr dead_on_unwind writable sret(%"struct.duckdb::CatalogTransaction") align 8 %0, ptr noundef nonnull align 8 dereferenceable(1912) %13)
  br label %14

14:                                               ; preds = %11, %9
  ret void
}