; Function Attrs: mustprogress uwtable
define void @_ZN6duckdb23CatalogSetSecretStorage23GetTransactionOrDefaultENS_12optional_ptrINS_18CatalogTransactionELb1EEE(ptr dead_on_unwind noalias writable sret(%"struct.duckdb::CatalogTransaction") align 8 %0, ptr noundef nonnull readonly align 8 captures(none) dereferenceable(72) %1, ptr %2) local_unnamed_addr #3 align 2 {
  %4 = alloca %"class.duckdb::optional_ptr.594", align 8
  store ptr %2, ptr %4, align 8
  %.not = icmp eq ptr %2, null
  br i1 %.not, label %7, label %5

5:                                                ; preds = %3
  call void @_ZNK6duckdb12optional_ptrINS_18CatalogTransactionELb1EE10CheckValidEv(ptr noundef nonnull align 8 dereferenceable(8) %4)
  %6 = load ptr, ptr %4, align 8, !tbaa !702
  call void @llvm.memcpy.p0.p0.i64(ptr noundef nonnull align 8 dereferenceable(40) %0, ptr noundef nonnull align 8 dereferenceable(40) %6, i64 40, i1 false), !tbaa.struct !135
  br label %10

7:                                                ; preds = %3
  %8 = getelementptr inbounds nuw i8, ptr %1, i64 64
  %9 = load ptr, ptr %8, align 8, !tbaa !705
  tail call void @_ZN6duckdb18CatalogTransaction20GetSystemTransactionERNS_16DatabaseInstanceE(ptr dead_on_unwind writable sret(%"struct.duckdb::CatalogTransaction") align 8 %0, ptr noundef nonnull align 8 dereferenceable(1912) %9)
  br label %10

10:                                               ; preds = %7, %5
  ret void
}